target datalayout = "e-m:e-p270:32:32-p271:32:32-p272:64:64-i64:64-i128:128-f80:128-n8:16:32:64-S128"
target triple = "x86_64-pc-linux-gnu"

%union.pthread_mutex_t = type { %struct.__pthread_mutex_s }
%struct.__pthread_mutex_s = type { i32, i32, i32, i32, i32, i16, i16, %struct.__pthread_internal_list }
%struct.__pthread_internal_list = type { ptr, ptr }
%struct.slurm_conf_t = type { i64, ptr, i16, ptr, ptr, ptr, ptr, ptr, i16, ptr, ptr, ptr, ptr, ptr, ptr, ptr, i16, ptr, ptr, ptr, ptr, i16, ptr, ptr, ptr, i64, ptr, ptr, ptr, ptr, i16, ptr, ptr, i16, i32, ptr, i32, ptr, i32, i32, ptr, ptr, i64, i64, ptr, i16, i16, ptr, i32, i32, ptr, i32, ptr, i32, i16, i16, i16, ptr, i16, i16, ptr, ptr, i32, i16, i16, ptr, i32, i16, ptr, ptr, ptr, ptr, i16, ptr, ptr, ptr, ptr, i32, ptr, ptr, ptr, ptr, i16, i16, ptr, i32, i32, i32, i16, i16, ptr, ptr, i16, ptr, ptr, i32, i32, i32, i32, i32, i64, i32, i32, i16, ptr, ptr, i32, ptr, ptr, ptr, i16, i32, ptr, ptr, i16, ptr, ptr, i32, i16, ptr, ptr, ptr, ptr, i32, i32, i16, i16, i32, ptr, i16, ptr, i32, i32, i32, i32, i32, i32, ptr, i16, ptr, ptr, i32, i16, ptr, i32, i16, i16, ptr, ptr, ptr, i16, ptr, ptr, ptr, ptr, i16, i16, ptr, i16, ptr, i16, ptr, i16, ptr, i16, ptr, ptr, ptr, ptr, i16, ptr, ptr, ptr, i32, ptr, i32, ptr, ptr, i16, ptr, ptr, i32, i16, ptr, ptr, i16, i16, ptr, i16, ptr, ptr, ptr, i32, ptr, i16, i16, ptr, ptr, ptr, ptr, ptr, ptr, ptr, ptr, i16, i32, i16, ptr, ptr, ptr, ptr, i32, ptr, ptr, ptr, i16, ptr, ptr, ptr, i16, ptr, i16, ptr, i16, i16, ptr }

@.str.3 = private unnamed_addr constant [29 x i8] c"%s: pthread_mutex_lock(): %m\00", align 1
@.str.5 = private unnamed_addr constant [31 x i8] c"%s: pthread_mutex_unlock(): %m\00", align 1
@max_delay_lock = internal global %union.pthread_mutex_t zeroinitializer, align 8
@max_resp_time = internal global i32 0, align 4
@_add_delay.target_resp_time = internal global i32 -1, align 4
@_add_delay.delay_time = internal global i32 10000, align 4
@_add_delay.previous_delay = internal global i32 0, align 4
@__func__._add_delay = private unnamed_addr constant [11 x i8] c"_add_delay\00", align 1
@slurm_conf = external global %struct.slurm_conf_t, align 8
@.str.22 = private unnamed_addr constant [30 x i8] c"%s: target response time = %d\00", align 1
@request_count = internal global i32 0, align 4
@.str.23 = private unnamed_addr constant [40 x i8] c"%s: adding delay in RPC send of %d usec\00", align 1

; Function Attrs: nounwind uwtable
define internal void @_add_delay() #0 {
  %1 = alloca i32, align 4
  %2 = alloca i32, align 4
  %3 = alloca i32, align 4
  %4 = alloca i32, align 4
  %5 = alloca i32, align 4
  call void @llvm.lifetime.start.p0(i64 4, ptr %1) #9
  br label %6

6:                                                ; preds = %0
  call void @llvm.lifetime.start.p0(i64 4, ptr %2) #9
  %7 = call i32 @pthread_mutex_lock(ptr noundef @max_delay_lock) #9
  store i32 %7, ptr %2, align 4
  %8 = load i32, ptr %2, align 4
  %9 = icmp ne i32 %8, 0
  br i1 %9, label %10, label %13

10:                                               ; preds = %6
  %11 = load i32, ptr %2, align 4
  %12 = call ptr @__errno_location() #11
  store i32 %11, ptr %12, align 4
  call void (ptr, ...) @fatal_abort(ptr noundef @.str.3, ptr noundef @__func__._add_delay) #12
  unreachable

13:                                               ; preds = %6
  call void @llvm.lifetime.end.p0(i64 4, ptr %2) #9
  br label %14

14:                                               ; preds = %13
  br label %15

15:                                               ; preds = %14
  %16 = load i32, ptr @_add_delay.target_resp_time, align 4
  %17 = icmp slt i32 %16, 0
  br i1 %17, label %18, label %49

18:                                               ; preds = %15
  %19 = load i16, ptr getelementptr inbounds nuw (%struct.slurm_conf_t, ptr @slurm_conf, i32 0, i32 110), align 8
  %20 = zext i16 %19 to i32
  %21 = sdiv i32 %20, 4
  store i32 %21, ptr @_add_delay.target_resp_time, align 4
  %22 = load i32, ptr @_add_delay.target_resp_time, align 4
  %23 = icmp sgt i32 %22, 3
  br i1 %23, label %24, label %26

24:                                               ; preds = %18
  %25 = load i32, ptr @_add_delay.target_resp_time, align 4
  br label %27

26:                                               ; preds = %18
  br label %27

27:                                               ; preds = %26, %24
  %28 = phi i32 [ %25, %24 ], [ 3, %26 ]
  store i32 %28, ptr @_add_delay.target_resp_time, align 4
  %29 = load i32, ptr @_add_delay.target_resp_time, align 4
  %30 = icmp slt i32 %29, 5
  br i1 %30, label %31, label %33

31:                                               ; preds = %27
  %32 = load i32, ptr @_add_delay.target_resp_time, align 4
  br label %34

33:                                               ; preds = %27
  br label %34

34:                                               ; preds = %33, %31
  %35 = phi i32 [ %32, %31 ], [ 5, %33 ]
  store i32 %35, ptr @_add_delay.target_resp_time, align 4
  %36 = load i32, ptr @_add_delay.target_resp_time, align 4
  %37 = mul nsw i32 %36, 1000000
  store i32 %37, ptr @_add_delay.target_resp_time, align 4
  br label %38

38:                                               ; preds = %34
  br label %39

39:                                               ; preds = %38
  %40 = call i32 @get_log_level()
  %41 = icmp sge i32 %40, 5
  br i1 %41, label %42, label %44

42:                                               ; preds = %39
  %43 = load i32, ptr @_add_delay.target_resp_time, align 4
  call void (i32, ptr, ...) @log_var(i32 noundef 5, ptr noundef @.str.22, ptr noundef @__func__._add_delay, i32 noundef %43)
  br label %44

44:                                               ; preds = %42, %39
  br label %45

45:                                               ; preds = %44
  br label %46

46:                                               ; preds = %45
  br label %47

47:                                               ; preds = %46
  br label %48

48:                                               ; preds = %47
  br label %49

49:                                               ; preds = %48, %15
  %50 = load i32, ptr @request_count, align 4
  %51 = add nsw i32 %50, 1
  store i32 %51, ptr @request_count, align 4
  %52 = icmp slt i32 %51, 10
  br i1 %52, label %57, label %53

53:                                               ; preds = %49
  %54 = load i32, ptr @max_resp_time, align 4
  %55 = load i32, ptr @_add_delay.target_resp_time, align 4
  %56 = icmp ule i32 %54, %55
  br i1 %56, label %57, label %68

57:                                               ; preds = %53, %49
  br label %58

58:                                               ; preds = %57
  call void @llvm.lifetime.start.p0(i64 4, ptr %3) #9
  %59 = call i32 @pthread_mutex_unlock(ptr noundef @max_delay_lock) #9
  store i32 %59, ptr %3, align 4
  %60 = load i32, ptr %3, align 4
  %61 = icmp ne i32 %60, 0
  br i1 %61, label %62, label %65

62:                                               ; preds = %58
  %63 = load i32, ptr %3, align 4
  %64 = call ptr @__errno_location() #11
  store i32 %63, ptr %64, align 4
  call void (ptr, ...) @fatal_abort(ptr noundef @.str.5, ptr noundef @__func__._add_delay) #12
  unreachable

65:                                               ; preds = %58
  call void @llvm.lifetime.end.p0(i64 4, ptr %3) #9
  br label %66

66:                                               ; preds = %65
  br label %67

67:                                               ; preds = %66
  store i32 1, ptr %4, align 4
  br label %105

68:                                               ; preds = %53
  %69 = load i32, ptr @_add_delay.delay_time, align 4
  %70 = load i32, ptr @_add_delay.previous_delay, align 4
  %71 = add nsw i32 %69, %70
  %72 = icmp slt i32 %71, 1000000
  br i1 %72, label %73, label %77

73:                                               ; preds = %68
  %74 = load i32, ptr @_add_delay.delay_time, align 4
  %75 = load i32, ptr @_add_delay.previous_delay, align 4
  %76 = add nsw i32 %74, %75
  br label %78

77:                                               ; preds = %68
  br label %78

78:                                               ; preds = %77, %73
  %79 = phi i32 [ %76, %73 ], [ 1000000, %77 ]
  store i32 %79, ptr %1, align 4
  %80 = load i32, ptr @_add_delay.delay_time, align 4
  store i32 %80, ptr @_add_delay.previous_delay, align 4
  %81 = load i32, ptr %1, align 4
  store i32 %81, ptr @_add_delay.delay_time, align 4
  br label %82

82:                                               ; preds = %78
  call void @llvm.lifetime.start.p0(i64 4, ptr %5) #9
  %83 = call i32 @pthread_mutex_unlock(ptr noundef @max_delay_lock) #9
  store i32 %83, ptr %5, align 4
  %84 = load i32, ptr %5, align 4
  %85 = icmp ne i32 %84, 0
  br i1 %85, label %86, label %89

86:                                               ; preds = %82
  %87 = load i32, ptr %5, align 4
  %88 = call ptr @__errno_location() #11
  store i32 %87, ptr %88, align 4
  call void (ptr, ...) @fatal_abort(ptr noundef @.str.5, ptr noundef @__func__._add_delay) #12
  unreachable

89:                                               ; preds = %82
  call void @llvm.lifetime.end.p0(i64 4, ptr %5) #9
  br label %90

90:                                               ; preds = %89
  br label %91

91:                                               ; preds = %90
  br label %92

92:                                               ; preds = %91
  br label %93

93:                                               ; preds = %92
  %94 = call i32 @get_log_level()
  %95 = icmp sge i32 %94, 3
  br i1 %95, label %96, label %98

96:                                               ; preds = %93
  %97 = load i32, ptr %1, align 4
  call void (i32, ptr, ...) @log_var(i32 noundef 3, ptr noundef @.str.23, ptr noundef @__func__._add_delay, i32 noundef %97)
  br label %98

98:                                               ; preds = %96, %93
  br label %99

99:                                               ; preds = %98
  br label %100

100:                                              ; preds = %99
  br label %101

101:                                              ; preds = %100
  br label %102

102:                                              ; preds = %101
  %103 = load i32, ptr %1, align 4
  %104 = call i32 @usleep(i32 noundef %103)
  store i32 1, ptr %4, align 4
  br label %105

105:                                              ; preds = %102, %67
  call void @llvm.lifetime.end.p0(i64 4, ptr %1) #9
  ret void
}