; Function Attrs: nounwind uwtable
define internal fastcc void @_add_delay() unnamed_addr #4 {
  %1 = tail call i32 @pthread_mutex_lock(ptr noundef nonnull @max_delay_lock) #12
  %.not = icmp eq i32 %1, 0
  br i1 %.not, label %4, label %2

2:                                                ; preds = %0
  %3 = tail call ptr @__errno_location() #14
  store i32 %1, ptr %3, align 4
  tail call void (ptr, ...) @fatal_abort(ptr noundef nonnull @.str.3, ptr noundef nonnull @__func__._add_delay) #13
  unreachable

4:                                                ; preds = %0
  %5 = load i32, ptr @_add_delay.target_resp_time, align 4
  %6 = icmp slt i32 %5, 0
  br i1 %6, label %7, label %18

7:                                                ; preds = %4
  %8 = load i16, ptr getelementptr inbounds nuw (i8, ptr @slurm_conf, i64 744), align 8
  %9 = lshr i16 %8, 2
  %10 = tail call i16 @llvm.umax.i16(i16 %9, i16 3)
  %11 = tail call i16 @llvm.umin.i16(i16 %10, i16 5)
  %12 = zext nneg i16 %11 to i32
  %13 = mul nuw nsw i32 %12, 1000000
  store i32 %13, ptr @_add_delay.target_resp_time, align 4
  %14 = tail call i32 @get_log_level() #12
  %15 = icmp sgt i32 %14, 4
  br i1 %15, label %16, label %18

16:                                               ; preds = %7
  %17 = load i32, ptr @_add_delay.target_resp_time, align 4
  tail call void (i32, ptr, ...) @log_var(i32 noundef 5, ptr noundef nonnull @.str.22, ptr noundef nonnull @__func__._add_delay, i32 noundef %17) #12
  br label %18

18:                                               ; preds = %7, %16, %4
  %19 = load i32, ptr @request_count, align 4
  %20 = add nsw i32 %19, 1
  store i32 %20, ptr @request_count, align 4
  %21 = icmp slt i32 %19, 9
  br i1 %21, label %25, label %22

22:                                               ; preds = %18
  %23 = load i32, ptr @max_resp_time, align 4
  %24 = load i32, ptr @_add_delay.target_resp_time, align 4
  %.not11 = icmp ugt i32 %23, %24
  br i1 %.not11, label %29, label %25

25:                                               ; preds = %18, %22
  %26 = tail call i32 @pthread_mutex_unlock(ptr noundef nonnull @max_delay_lock) #12
  %.not13 = icmp eq i32 %26, 0
  br i1 %.not13, label %43, label %27

27:                                               ; preds = %25
  %28 = tail call ptr @__errno_location() #14
  store i32 %26, ptr %28, align 4
  tail call void (ptr, ...) @fatal_abort(ptr noundef nonnull @.str.5, ptr noundef nonnull @__func__._add_delay) #13
  unreachable

29:                                               ; preds = %22
  %30 = load i32, ptr @_add_delay.delay_time, align 4
  %31 = load i32, ptr @_add_delay.previous_delay, align 4
  %32 = add nsw i32 %31, %30
  %33 = tail call i32 @llvm.smin.i32(i32 %32, i32 1000000)
  store i32 %30, ptr @_add_delay.previous_delay, align 4
  store i32 %33, ptr @_add_delay.delay_time, align 4
  %34 = tail call i32 @pthread_mutex_unlock(ptr noundef nonnull @max_delay_lock) #12
  %.not12 = icmp eq i32 %34, 0
  br i1 %.not12, label %37, label %35

35:                                               ; preds = %29
  %36 = tail call ptr @__errno_location() #14
  store i32 %34, ptr %36, align 4
  tail call void (ptr, ...) @fatal_abort(ptr noundef nonnull @.str.5, ptr noundef nonnull @__func__._add_delay) #13
  unreachable

37:                                               ; preds = %29
  %38 = tail call i32 @get_log_level() #12
  %39 = icmp sgt i32 %38, 2
  br i1 %39, label %40, label %41

40:                                               ; preds = %37
  tail call void (i32, ptr, ...) @log_var(i32 noundef 3, ptr noundef nonnull @.str.23, ptr noundef nonnull @__func__._add_delay, i32 noundef %33) #12
  br label %41

41:                                               ; preds = %40, %37
  %42 = tail call i32 @usleep(i32 noundef %33) #12
  br label %43

43:                                               ; preds = %25, %41
  ret void
}